EXPORTS
    STRTOXX_EXIT_CODE @1 DATA
    _Z10hex_appendPcPhi @2
    _Z10mem2strcpyPcPKvjj @3
    _Z10parse_sizePKcPyPi @4
    _Z10sha256_sumP6sha256Ph @5
    _Z10skip_blankPKc @6
    _Z10skip_spacePKc @7
    _Z10startswithPKcS0_ @8
    _Z10str2memcpyPvPKcj @9
    _Z10str_appendPcS_ @10
    _Z10strreallocPcPKc @11
    _Z10ul_MD5InitP13UL_MD5Context @12
    _Z11byteReversePhj @13
    _Z11parse_rangePKcPiS1_i @14
    _Z11sha256_initP6sha256 @15
    _Z11streq_pathsPKcS0_ @16
    _Z11ul_MD5FinalPhP13UL_MD5Context @17
    _Z11ul_SHA1InitP11UL_SHA1_CTX @18
    _Z11ul_crc64_wePKhj @19
    _Z11ul_strtos32PKcPii @20
    _Z11ul_strtos64PKcPxi @21
    _Z11ul_strtou32PKcPji @22
    _Z11ul_strtou64PKcPyi @23
    _Z12parse_switchPKcS0_z @24
    _Z12processblockP6sha256PKh @25
    _Z12ul_MD5UpdateP13UL_MD5ContextPKhj @26
    _Z12ul_SHA1FinalPhP11UL_SHA1_CTX @27
    _Z13sha256_updateP6sha256PKvm @28
    _Z13ul_SHA1UpdateP11UL_SHA1_CTXPKhj @29
    _Z13ul_crc64_ecmaPKhj @30
    _Z14crc32_add_charjh @31
    _Z14isdigit_strendPKcPS0_ @32
    _Z14str2num_or_errPKciS0_xx @33
    _Z14ul_next_stringPcS_ @34
    _Z14ul_stralnumcmpPKcS0_ @35
    _Z15isxdigit_strendPKcPS0_ @36
    _Z15str2unum_or_errPKciS0_y @37
    _Z15strcspn_escapedPKcS0_ @38
    _Z15ul_MD5TransformPjPKj @39
    _Z15ul_update_crc64yh @40
    _Z16ltrim_whitespacePh @41
    _Z16rtrim_whitespacePh @42
    _Z16ul_SHA1TransformPjPKh @43
    _Z17do_scale_by_powerPyii @44
    _Z17next_path_segmentPKcPj @45
    _Z17ul_strchr_escapedPKci @46
    _Z18dump_bytes_to_filePcPhi @47
    _Z18startswith_no_casePKcS0_ @48
    _Z20normalize_whitespacePh @49
    _Z22__normalize_whitespacePKhjPhj @50
    _Z23ul_crc32_exclude_offsetjPKhjjj @51
    _Z24prog_inv_sh_nm_from_filePcc @52
    _Z24ul_crc32c_exclude_offsetjPKhjjj @53
    _Z3padP6sha256 @54
    _Z3rorji @55
    _Z6crc32cjPKvj @56
    _Z6errmsgcicPKcz @57
    _Z6printfPKcz @58
    _Z6strremPci @59
    _Z6strrepPcii @60
    _Z6ul_MD5PhPKhj @61
    _Z7fprintfP6_iobufPKcz @62
    _Z7hex2binPcPh @63
    _Z7hexdumpP6_iobufPhii @64
    _Z7sprintfPcPKcz @65
    _Z7ul_SHA1PcPKcj @66
    _Z8dump_hexPhi @67
    _Z8endswithPKcS0_ @68
    _Z8ul_crc32jPKhj @69
    _Z9find_charcPPc @70
    _Z9parse_hexPcPhi @71
    _Z9skip_charcPPc @72
    _Z9strtosizePKcPy @73
    _Z9ul_SHA256PhPKhj @74
    prog_inv_sh_nm_buf @75 DATA
